target datalayout = "e-m:e-p270:32:32-p271:32:32-p272:64:64-i64:64-i128:128-f80:128-n8:16:32:64-S128"
target triple = "x86_64-pc-linux-gnu"

%struct.H5HF_hdr_t = type { %struct.H5C_cache_entry_t, i32, i32, i8, i8, i8, i8, %struct.H5HF_dtable_t, i64, i64, i32, i64, i64, %struct.H5O_pline_t, i64, i32, i64, i64, i64, i64, i64, i64, i64, i64, i64, i64, i64, i32, ptr, i64, i8, i8, i8, ptr, i32, ptr, %struct.H5HF_block_iter_t, ptr, i64, i8, i8, i64, i8, i8, i8, i8 }
%struct.H5C_cache_entry_t = type { ptr, i64, i64, ptr, i8, ptr, i8, i8, i8, i8, i32, i8, i8, i8, i8, i8, i32, ptr, i32, i32, i32, i32, i32, i8, i8, ptr, ptr, ptr, ptr, ptr, ptr, i8, i32, i8, i64, ptr, i64, i64, i32, i8, i32, i32, i8, ptr, ptr, ptr }
%struct.H5HF_dtable_t = type { %struct.H5HF_dtable_cparam_t, i64, i32, i32, i32, i32, i32, i32, i32, i64, ptr, ptr, ptr, ptr }
%struct.H5HF_dtable_cparam_t = type { i32, i64, i64, i32, i32 }
%struct.H5O_pline_t = type { %struct.H5O_shared_t, i32, i64, i64, ptr }
%struct.H5O_shared_t = type { i32, ptr, i32, %union.anon }
%union.anon = type { %struct.H5O_mesg_loc_t }
%struct.H5O_mesg_loc_t = type { i32, i64 }
%struct.H5HF_block_iter_t = type { i8, ptr }

@H5HF_init_g = external global i8, align 1
@H5_libterm_g = external global i8, align 1
@.str = private unnamed_addr constant [101 x i8] c"generated/home/dtcxzyw/WorkSpace/Projects/compilers/llvm-opt-benchmark/bench/hdf5/hdf5/src/H5HFhdr.c\00", align 1
@__func__.H5HF__hdr_alloc = private unnamed_addr constant [16 x i8] c"H5HF__hdr_alloc\00", align 1
@H5E_HEAP_g = external global i64, align 8
@H5E_CANTALLOC_g = external global i64, align 8
@.str.1 = private unnamed_addr constant [49 x i8] c"allocation failed for fractal heap shared header\00", align 1
@H5_H5HF_hdr_t_reg_free_list = internal global { i8, [3 x i8], i32, i32, [4 x i8], ptr, i64, ptr } { i8 0, [3 x i8] zeroinitializer, i32 0, i32 0, [4 x i8] zeroinitializer, ptr @.str.51, i64 704, ptr null }, align 8

; Function Attrs: nounwind uwtable
define ptr @H5HF__hdr_alloc(ptr noundef %0) #0 {
  %2 = alloca ptr, align 8
  %3 = alloca ptr, align 8
  %4 = alloca ptr, align 8
  %5 = alloca i8, align 1
  store ptr %0, ptr %2, align 8, !tbaa !3
  call void @llvm.lifetime.start.p0(i64 8, ptr %3) #7
  store ptr null, ptr %3, align 8, !tbaa !8
  call void @llvm.lifetime.start.p0(i64 8, ptr %4) #7
  store ptr null, ptr %4, align 8, !tbaa !8
  call void @llvm.lifetime.start.p0(i64 1, ptr %5) #7
  store i8 0, ptr %5, align 1, !tbaa !10
  %6 = load i8, ptr @H5HF_init_g, align 1, !tbaa !10, !range !12, !noundef !13
  %7 = trunc i8 %6 to i1
  br i1 %7, label %12, label %8

8:                                                ; preds = %1
  %9 = load i8, ptr @H5_libterm_g, align 1, !tbaa !10, !range !12, !noundef !13
  %10 = trunc i8 %9 to i1
  %11 = xor i1 %10, true
  br label %12

12:                                               ; preds = %8, %1
  %13 = phi i1 [ true, %1 ], [ %11, %8 ]
  %14 = xor i1 %13, true
  %15 = xor i1 %14, true
  %16 = zext i1 %15 to i32
  %17 = sext i32 %16 to i64
  %18 = call i64 @llvm.expect.i64(i64 %17, i64 1)
  %19 = icmp ne i64 %18, 0
  br i1 %19, label %20, label %56

20:                                               ; preds = %12
  %21 = call noalias ptr @H5FL_reg_calloc(ptr noundef @H5_H5HF_hdr_t_reg_free_list)
  store ptr %21, ptr %3, align 8, !tbaa !8
  %22 = icmp eq ptr null, %21
  br i1 %22, label %23, label %42

23:                                               ; preds = %20
  br label %24

24:                                               ; preds = %23
  br label %25

25:                                               ; preds = %24
  br label %26

26:                                               ; preds = %25
  %27 = load i64, ptr @H5E_HEAP_g, align 8, !tbaa !14
  %28 = load i64, ptr @H5E_CANTALLOC_g, align 8, !tbaa !14
  %29 = call i32 (ptr, ptr, i32, i64, i64, ptr, ...) @H5E_printf_stack(ptr noundef @.str, ptr noundef @__func__.H5HF__hdr_alloc, i32 noundef 109, i64 noundef %27, i64 noundef %28, ptr noundef @.str.1)
  br label %30

30:                                               ; preds = %26
  br label %31

31:                                               ; preds = %30
  store i8 1, ptr %5, align 1, !tbaa !10
  %32 = load i8, ptr %5, align 1, !tbaa !10, !range !12, !noundef !13
  %33 = trunc i8 %32 to i1
  %34 = zext i1 %33 to i8
  store i8 %34, ptr %5, align 1, !tbaa !10
  br label %35

35:                                               ; preds = %31
  br label %36

36:                                               ; preds = %35
  br label %37

37:                                               ; preds = %36
  store ptr null, ptr %4, align 8, !tbaa !8
  br label %55

38:                                               ; No predecessors!
  br label %39

39:                                               ; preds = %38
  br label %40

40:                                               ; preds = %39
  br label %41

41:                                               ; preds = %40
  br label %42

42:                                               ; preds = %41, %20
  %43 = load ptr, ptr %2, align 8, !tbaa !3
  %44 = load ptr, ptr %3, align 8, !tbaa !8
  %45 = getelementptr inbounds nuw %struct.H5HF_hdr_t, ptr %44, i32 0, i32 28
  store ptr %43, ptr %45, align 8, !tbaa !16
  %46 = load ptr, ptr %2, align 8, !tbaa !3
  %47 = call zeroext i8 @H5F_sizeof_size(ptr noundef %46)
  %48 = load ptr, ptr %3, align 8, !tbaa !8
  %49 = getelementptr inbounds nuw %struct.H5HF_hdr_t, ptr %48, i32 0, i32 31
  store i8 %47, ptr %49, align 1, !tbaa !36
  %50 = load ptr, ptr %2, align 8, !tbaa !3
  %51 = call zeroext i8 @H5F_sizeof_addr(ptr noundef %50)
  %52 = load ptr, ptr %3, align 8, !tbaa !8
  %53 = getelementptr inbounds nuw %struct.H5HF_hdr_t, ptr %52, i32 0, i32 32
  store i8 %51, ptr %53, align 2, !tbaa !37
  %54 = load ptr, ptr %3, align 8, !tbaa !8
  store ptr %54, ptr %4, align 8, !tbaa !8
  br label %55

55:                                               ; preds = %42, %37
  br label %56

56:                                               ; preds = %55, %12
  %57 = load ptr, ptr %4, align 8, !tbaa !8
  call void @llvm.lifetime.end.p0(i64 1, ptr %5) #7
  call void @llvm.lifetime.end.p0(i64 8, ptr %4) #7
  call void @llvm.lifetime.end.p0(i64 8, ptr %3) #7
  ret ptr %57
}