; Function Attrs: nounwind uwtable
define noalias ptr @H5HF__hdr_alloc(ptr noundef %0) local_unnamed_addr #0 {
  %2 = load i8, ptr @H5HF_init_g, align 1, !tbaa !3, !range !7, !noundef !8
  %3 = trunc nuw i8 %2 to i1
  %4 = load i8, ptr @H5_libterm_g, align 1, !range !7
  %5 = trunc nuw i8 %4 to i1
  %6 = xor i1 %5, true
  %7 = select i1 %3, i1 true, i1 %6
  br i1 %7, label %8, label %21, !prof !9

8:                                                ; preds = %1
  %9 = tail call noalias ptr @H5FL_reg_calloc(ptr noundef nonnull @H5_H5HF_hdr_t_reg_free_list) #7
  %10 = icmp eq ptr %9, null
  br i1 %10, label %11, label %15

11:                                               ; preds = %8
  %12 = load i64, ptr @H5E_HEAP_g, align 8, !tbaa !10
  %13 = load i64, ptr @H5E_CANTALLOC_g, align 8, !tbaa !10
  %14 = tail call i32 (ptr, ptr, i32, i64, i64, ptr, ...) @H5E_printf_stack(ptr noundef nonnull @.str, ptr noundef nonnull @__func__.H5HF__hdr_alloc, i32 noundef 109, i64 noundef %12, i64 noundef %13, ptr noundef nonnull @.str.1) #7
  br label %21

15:                                               ; preds = %8
  %16 = getelementptr inbounds nuw i8, ptr %9, i64 600
  store ptr %0, ptr %16, align 8, !tbaa !12
  %17 = tail call zeroext i8 @H5F_sizeof_size(ptr noundef %0) #7
  %18 = getelementptr inbounds nuw i8, ptr %9, i64 617
  store i8 %17, ptr %18, align 1, !tbaa !34
  %19 = tail call zeroext i8 @H5F_sizeof_addr(ptr noundef %0) #7
  %20 = getelementptr inbounds nuw i8, ptr %9, i64 618
  store i8 %19, ptr %20, align 2, !tbaa !35
  br label %21

21:                                               ; preds = %11, %15, %1
  %.0 = phi ptr [ null, %11 ], [ %9, %15 ], [ null, %1 ]
  ret ptr %.0
}